target datalayout = "e-m:e-p270:32:32-p271:32:32-p272:64:64-i64:64-i128:128-f80:128-n8:16:32:64-S128"
target triple = "x86_64-pc-linux-gnu"

%"class.euf::egraph" = type { ptr, %class.svector, %"class.euf::etable", %class.region, %class.scoped_ptr_vector, %class.svector.3, %class.svector.5, %class.ptr_vector.7, ptr, ptr, i32, %class.tmp_app, %class.ptr_vector.7, %class.ref_vector, %class.ref_vector.11, %class.vector.16, %class.ptr_vector.7, i32, i8, ptr, ptr, %"class.euf::justification", i32, %class.svector.18, %class.svector.20, %class.ptr_vector.7, %"struct.euf::egraph::stats", i8, i8, i64, %"class.std::vector", %"class.std::function", %"class.std::function.22", %"class.std::function.24", %"class.std::function.26", %"class.std::function.29" }
%class.svector = type { %class.vector }
%class.vector = type { ptr }
%"class.euf::etable" = type { ptr, i8, %class.ptr_vector, %class.map }
%class.ptr_vector = type { %class.vector.0 }
%class.vector.0 = type { ptr }
%class.map = type { %class.table2map }
%class.table2map = type { %class.core_hashtable }
%class.core_hashtable = type <{ ptr, i32, i32, i32, [4 x i8] }>
%class.region = type { ptr, ptr, ptr, ptr, ptr }
%class.scoped_ptr_vector = type { %class.ptr_vector.1 }
%class.ptr_vector.1 = type { %class.vector.2 }
%class.vector.2 = type { ptr }
%class.svector.3 = type { %class.vector.4 }
%class.vector.4 = type { ptr }
%class.svector.5 = type { %class.vector.6 }
%class.vector.6 = type { ptr }
%class.tmp_app = type { i32, ptr }
%class.ref_vector = type { %class.ref_vector_core }
%class.ref_vector_core = type { %class.ref_manager_wrapper, %class.ptr_vector.9 }
%class.ref_manager_wrapper = type { ptr }
%class.ptr_vector.9 = type { %class.vector.10 }
%class.vector.10 = type { ptr }
%class.ref_vector.11 = type { %class.ref_vector_core.12 }
%class.ref_vector_core.12 = type { %class.ref_manager_wrapper.13, %class.ptr_vector.14 }
%class.ref_manager_wrapper.13 = type { ptr }
%class.ptr_vector.14 = type { %class.vector.15 }
%class.vector.15 = type { ptr }
%class.vector.16 = type { ptr }
%"class.euf::justification" = type { i32, %union.anon, %union.anon.17 }
%union.anon = type { ptr }
%union.anon.17 = type { ptr }
%class.svector.18 = type { %class.vector.19 }
%class.vector.19 = type { ptr }
%class.svector.20 = type { %class.vector.21 }
%class.vector.21 = type { ptr }
%class.ptr_vector.7 = type { %class.vector.8 }
%class.vector.8 = type { ptr }
%"struct.euf::egraph::stats" = type { i32, i32, i32, i32, i32, i32 }
%"class.std::vector" = type { %"struct.std::_Vector_base" }
%"struct.std::_Vector_base" = type { %"struct.std::_Vector_base<std::function<void (euf::enode *, euf::enode *)>, std::allocator<std::function<void (euf::enode *, euf::enode *)>>>::_Vector_impl" }
%"struct.std::_Vector_base<std::function<void (euf::enode *, euf::enode *)>, std::allocator<std::function<void (euf::enode *, euf::enode *)>>>::_Vector_impl" = type { %"struct.std::_Vector_base<std::function<void (euf::enode *, euf::enode *)>, std::allocator<std::function<void (euf::enode *, euf::enode *)>>>::_Vector_impl_data" }
%"struct.std::_Vector_base<std::function<void (euf::enode *, euf::enode *)>, std::allocator<std::function<void (euf::enode *, euf::enode *)>>>::_Vector_impl_data" = type { ptr, ptr, ptr }
%"class.std::function" = type { %"class.std::_Function_base", ptr }
%"class.std::_Function_base" = type { %"union.std::_Any_data", ptr }
%"union.std::_Any_data" = type { %"union.std::_Nocopy_types" }
%"union.std::_Nocopy_types" = type { { i64, i64 } }
%"class.std::function.22" = type { %"class.std::_Function_base", ptr }
%"class.std::function.24" = type { %"class.std::_Function_base", ptr }
%"class.std::function.26" = type { %"class.std::_Function_base", ptr }
%"class.std::function.29" = type { %"class.std::_Function_base", ptr }
%"class.euf::enode" = type { ptr, i8, i8, i8, i8, i8, i8, i8, i8, i8, i32, i32, i32, i32, i32, i32, %class.ptr_vector.7, ptr, ptr, ptr, ptr, %class.id_var_list, %"class.euf::justification", %"class.euf::justification", i32, i8, %class.approx_set, %class.approx_set, [0 x ptr] }
%class.id_var_list = type { i32, ptr }
%class.approx_set = type { %class.approx_set_tpl }
%class.approx_set_tpl = type { i64 }
%class.ast = type { i32, i32, i32, i32 }
%"struct.euf::egraph::update_record" = type { i32, ptr, ptr, %union.anon.32 }
%union.anon.32 = type { i64 }

; Function Attrs: mustprogress nounwind uwtable
define linkonce_odr hidden noundef i32 @_ZNK3u2uclEj(ptr noundef nonnull align 1 dereferenceable(1) %0, i32 noundef %1) #6 comdat align 2 {
  %3 = alloca ptr, align 8
  %4 = alloca i32, align 4
  store ptr %0, ptr %3, align 8, !tbaa !619
  store i32 %1, ptr %4, align 4, !tbaa !10
  %5 = load i32, ptr %4, align 4, !tbaa !10
  ret i32 %5
}

; Function Attrs: mustprogress nounwind uwtable
define linkonce_odr hidden noundef i64 @_ZNK14approx_set_tplIj3u2uyE3u2sEj(ptr noundef nonnull align 8 dereferenceable(8) %0, i32 noundef %1) #6 comdat align 2 {
  %3 = alloca ptr, align 8
  %4 = alloca i32, align 4
  store ptr %0, ptr %3, align 8, !tbaa !350
  store i32 %1, ptr %4, align 4, !tbaa !10
  %5 = load i32, ptr %4, align 4, !tbaa !10
  %6 = and i32 %5, 63
  %7 = zext i32 %6 to i64
  %8 = shl i64 1, %7
  ret i64 %8
}

; Function Attrs: mustprogress uwtable
define linkonce_odr hidden noundef i32 @_ZNK14approx_set_tplIj3u2uyE3e2uERKj(ptr noundef nonnull align 8 dereferenceable(8) %0, ptr noundef nonnull align 4 dereferenceable(4) %1) #4 comdat align 2 {
  %3 = alloca ptr, align 8
  %4 = alloca ptr, align 8
  store ptr %0, ptr %3, align 8, !tbaa !350
  store ptr %1, ptr %4, align 8, !tbaa !163
  %5 = load ptr, ptr %3, align 8
  %6 = load ptr, ptr %4, align 8, !tbaa !163
  %7 = load i32, ptr %6, align 4, !tbaa !10
  %8 = call noundef i32 @_ZNK3u2uclEj(ptr noundef nonnull align 1 dereferenceable(1) %5, i32 noundef %7)
  ret i32 %8
}

; Function Attrs: mustprogress nounwind uwtable
define linkonce_odr hidden noundef i64 @_ZNK14approx_set_tplIj3u2uyE3getEv(ptr noundef nonnull align 8 dereferenceable(8) %0) #6 comdat align 2 {
  %2 = alloca ptr, align 8
  store ptr %0, ptr %2, align 8, !tbaa !350
  %3 = load ptr, ptr %2, align 8
  %4 = getelementptr inbounds nuw %class.approx_set_tpl, ptr %3, i32 0, i32 0
  %5 = load i64, ptr %4, align 8, !tbaa !352
  ret i64 %5
}

; Function Attrs: mustprogress uwtable
define linkonce_odr hidden noundef i64 @_ZNK14approx_set_tplIj3u2uyE3e2sERKj(ptr noundef nonnull align 8 dereferenceable(8) %0, ptr noundef nonnull align 4 dereferenceable(4) %1) #4 comdat align 2 {
  %3 = alloca ptr, align 8
  %4 = alloca ptr, align 8
  store ptr %0, ptr %3, align 8, !tbaa !350
  store ptr %1, ptr %4, align 8, !tbaa !163
  %5 = load ptr, ptr %3, align 8
  %6 = load ptr, ptr %4, align 8, !tbaa !163
  %7 = call noundef i32 @_ZNK14approx_set_tplIj3u2uyE3e2uERKj(ptr noundef nonnull align 8 dereferenceable(8) %5, ptr noundef nonnull align 4 dereferenceable(4) %6)
  %8 = call noundef i64 @_ZNK14approx_set_tplIj3u2uyE3u2sEj(ptr noundef nonnull align 8 dereferenceable(8) %5, i32 noundef %7)
  ret i64 %8
}

; Function Attrs: mustprogress nounwind uwtable
define linkonce_odr hidden noundef i32 @_ZNK3ast6get_idEv(ptr noundef nonnull align 4 dereferenceable(16) %0) #6 comdat align 2 {
  %2 = alloca ptr, align 8
  store ptr %0, ptr %2, align 8, !tbaa !111
  %3 = load ptr, ptr %2, align 8
  %4 = getelementptr inbounds nuw %class.ast, ptr %3, i32 0, i32 0
  %5 = load i32, ptr %4, align 4, !tbaa !126
  ret i32 %5
}

; Function Attrs: mustprogress uwtable
define linkonce_odr hidden void @_ZN14approx_set_tplIj3u2uyE6insertERKj(ptr noundef nonnull align 8 dereferenceable(8) %0, ptr noundef nonnull align 4 dereferenceable(4) %1) #4 comdat align 2 {
  %3 = alloca ptr, align 8
  %4 = alloca ptr, align 8
  store ptr %0, ptr %3, align 8, !tbaa !350
  store ptr %1, ptr %4, align 8, !tbaa !163
  %5 = load ptr, ptr %3, align 8
  %6 = load ptr, ptr %4, align 8, !tbaa !163
  %7 = call noundef i64 @_ZNK14approx_set_tplIj3u2uyE3e2sERKj(ptr noundef nonnull align 8 dereferenceable(8) %5, ptr noundef nonnull align 4 dereferenceable(4) %6)
  %8 = getelementptr inbounds nuw %class.approx_set_tpl, ptr %5, i32 0, i32 0
  %9 = load i64, ptr %8, align 8, !tbaa !352
  %10 = or i64 %9, %7
  store i64 %10, ptr %8, align 8, !tbaa !352
  ret void
}

; Function Attrs: mustprogress uwtable
define linkonce_odr hidden void @_ZN3euf6egraph13update_recordC2EPNS_5enodeENS1_7lbl_setE(ptr noundef nonnull align 8 dereferenceable(32) %0, ptr noundef %1) unnamed_addr #4 comdat align 2 {
  %3 = alloca ptr, align 8
  %4 = alloca ptr, align 8
  store ptr %0, ptr %3, align 8, !tbaa !168
  store ptr %1, ptr %4, align 8, !tbaa !15
  %5 = load ptr, ptr %3, align 8
  %6 = getelementptr inbounds nuw %"struct.euf::egraph::update_record", ptr %5, i32 0, i32 0
  store i32 12, ptr %6, align 8, !tbaa !172
  %7 = getelementptr inbounds nuw %"struct.euf::egraph::update_record", ptr %5, i32 0, i32 1
  %8 = load ptr, ptr %4, align 8, !tbaa !15
  store ptr %8, ptr %7, align 8, !tbaa !174
  %9 = getelementptr inbounds nuw %"struct.euf::egraph::update_record", ptr %5, i32 0, i32 2
  store ptr null, ptr %9, align 8, !tbaa !175
  %10 = getelementptr inbounds nuw %"struct.euf::egraph::update_record", ptr %5, i32 0, i32 3
  %11 = load ptr, ptr %4, align 8, !tbaa !15
  %12 = getelementptr inbounds nuw %"class.euf::enode", ptr %11, i32 0, i32 26
  %13 = call noundef i64 @_ZNK14approx_set_tplIj3u2uyE3getEv(ptr noundef nonnull align 8 dereferenceable(8) %12)
  store i64 %13, ptr %10, align 8, !tbaa !140
  ret void
}

; Function Attrs: mustprogress uwtable
define linkonce_odr hidden noundef zeroext i1 @_ZNK14approx_set_tplIj3u2uyE11may_containERKj(ptr noundef nonnull align 8 dereferenceable(8) %0, ptr noundef nonnull align 4 dereferenceable(4) %1) #4 comdat align 2 {
  %3 = alloca ptr, align 8
  %4 = alloca ptr, align 8
  store ptr %0, ptr %3, align 8, !tbaa !350
  store ptr %1, ptr %4, align 8, !tbaa !163
  %5 = load ptr, ptr %3, align 8
  %6 = getelementptr inbounds nuw %class.approx_set_tpl, ptr %5, i32 0, i32 0
  %7 = load i64, ptr %6, align 8, !tbaa !352
  %8 = load ptr, ptr %4, align 8, !tbaa !163
  %9 = call noundef i64 @_ZNK14approx_set_tplIj3u2uyE3e2sERKj(ptr noundef nonnull align 8 dereferenceable(8) %5, ptr noundef nonnull align 4 dereferenceable(4) %8)
  %10 = and i64 %7, %9
  %11 = icmp ne i64 %10, 0
  ret i1 %11
}

; Function Attrs: mustprogress nounwind uwtable
define linkonce_odr hidden noundef ptr @_ZNK3euf5enode8get_rootEv(ptr noundef nonnull align 8 dereferenceable(176) %0) #6 comdat align 2 {
  %2 = alloca ptr, align 8
  store ptr %0, ptr %2, align 8, !tbaa !15
  %3 = load ptr, ptr %2, align 8
  %4 = getelementptr inbounds nuw %"class.euf::enode", ptr %3, i32 0, i32 18
  %5 = load ptr, ptr %4, align 8, !tbaa !98
  ret ptr %5
}

; Function Attrs: inlinehint mustprogress nounwind uwtable
define linkonce_odr hidden noundef i32 @_Z6hash_uj(i32 noundef %0) #8 comdat {
  %2 = alloca i32, align 4
  store i32 %0, ptr %2, align 4, !tbaa !10
  %3 = load i32, ptr %2, align 4, !tbaa !10
  %4 = add i32 %3, 2127912214
  %5 = load i32, ptr %2, align 4, !tbaa !10
  %6 = shl i32 %5, 12
  %7 = add i32 %4, %6
  store i32 %7, ptr %2, align 4, !tbaa !10
  %8 = load i32, ptr %2, align 4, !tbaa !10
  %9 = xor i32 %8, -949894596
  %10 = load i32, ptr %2, align 4, !tbaa !10
  %11 = lshr i32 %10, 19
  %12 = xor i32 %9, %11
  store i32 %12, ptr %2, align 4, !tbaa !10
  %13 = load i32, ptr %2, align 4, !tbaa !10
  %14 = add i32 %13, 374761393
  %15 = load i32, ptr %2, align 4, !tbaa !10
  %16 = shl i32 %15, 5
  %17 = add i32 %14, %16
  store i32 %17, ptr %2, align 4, !tbaa !10
  %18 = load i32, ptr %2, align 4, !tbaa !10
  %19 = add i32 %18, -744332180
  %20 = load i32, ptr %2, align 4, !tbaa !10
  %21 = shl i32 %20, 9
  %22 = xor i32 %19, %21
  store i32 %22, ptr %2, align 4, !tbaa !10
  %23 = load i32, ptr %2, align 4, !tbaa !10
  %24 = add i32 %23, -42973499
  %25 = load i32, ptr %2, align 4, !tbaa !10
  %26 = shl i32 %25, 3
  %27 = add i32 %24, %26
  store i32 %27, ptr %2, align 4, !tbaa !10
  %28 = load i32, ptr %2, align 4, !tbaa !10
  %29 = xor i32 %28, -1252372727
  %30 = load i32, ptr %2, align 4, !tbaa !10
  %31 = lshr i32 %30, 16
  %32 = xor i32 %29, %31
  store i32 %32, ptr %2, align 4, !tbaa !10
  %33 = load i32, ptr %2, align 4, !tbaa !10
  ret i32 %33
}

; Function Attrs: mustprogress nounwind uwtable
define linkonce_odr hidden noundef i32 @_ZNK3euf5enode11get_expr_idEv(ptr noundef nonnull align 8 dereferenceable(176) %0) #6 comdat align 2 {
  %2 = alloca ptr, align 8
  store ptr %0, ptr %2, align 8, !tbaa !15
  %3 = load ptr, ptr %2, align 8
  %4 = getelementptr inbounds nuw %"class.euf::enode", ptr %3, i32 0, i32 0
  %5 = load ptr, ptr %4, align 8, !tbaa !89
  %6 = call noundef i32 @_ZNK3ast6get_idEv(ptr noundef nonnull align 4 dereferenceable(16) %5)
  ret i32 %6
}

; Function Attrs: mustprogress uwtable
define linkonce_odr hidden noundef nonnull align 8 dereferenceable(8) ptr @_ZN6vectorIN3euf6egraph13update_recordELb0EjE9push_backEOS2_(ptr noundef nonnull align 8 dereferenceable(8) %0, ptr noundef nonnull align 8 dereferenceable(32) %1) #4 comdat align 2 {
  %3 = alloca ptr, align 8
  %4 = alloca ptr, align 8
  store ptr %0, ptr %3, align 8, !tbaa !165
  store ptr %1, ptr %4, align 8, !tbaa !168
  %5 = load ptr, ptr %3, align 8
  %6 = getelementptr inbounds nuw %class.vector.4, ptr %5, i32 0, i32 0
  %7 = load ptr, ptr %6, align 8, !tbaa !167
  %8 = icmp eq ptr %7, null
  br i1 %8, label %19, label %9

9:                                                ; preds = %2
  %10 = getelementptr inbounds nuw %class.vector.4, ptr %5, i32 0, i32 0
  %11 = load ptr, ptr %10, align 8, !tbaa !167
  %12 = getelementptr inbounds i32, ptr %11, i64 -1
  %13 = load i32, ptr %12, align 4, !tbaa !10
  %14 = getelementptr inbounds nuw %class.vector.4, ptr %5, i32 0, i32 0
  %15 = load ptr, ptr %14, align 8, !tbaa !167
  %16 = getelementptr inbounds i32, ptr %15, i64 -2
  %17 = load i32, ptr %16, align 4, !tbaa !10
  %18 = icmp eq i32 %13, %17
  br i1 %18, label %19, label %20

19:                                               ; preds = %9, %2
  call void @_ZN6vectorIN3euf6egraph13update_recordELb0EjE13expand_vectorEv(ptr noundef nonnull align 8 dereferenceable(8) %5)
  br label %20

20:                                               ; preds = %19, %9
  %21 = getelementptr inbounds nuw %class.vector.4, ptr %5, i32 0, i32 0
  %22 = load ptr, ptr %21, align 8, !tbaa !167
  %23 = getelementptr inbounds nuw %class.vector.4, ptr %5, i32 0, i32 0
  %24 = load ptr, ptr %23, align 8, !tbaa !167
  %25 = getelementptr inbounds i32, ptr %24, i64 -1
  %26 = load i32, ptr %25, align 4, !tbaa !10
  %27 = zext i32 %26 to i64
  %28 = getelementptr inbounds nuw %"struct.euf::egraph::update_record", ptr %22, i64 %27
  %29 = load ptr, ptr %4, align 8, !tbaa !168
  call void @llvm.memcpy.p0.p0.i64(ptr align 8 %28, ptr align 8 %29, i64 32, i1 false), !tbaa.struct !169
  %30 = getelementptr inbounds nuw %class.vector.4, ptr %5, i32 0, i32 0
  %31 = load ptr, ptr %30, align 8, !tbaa !167
  %32 = getelementptr inbounds i32, ptr %31, i64 -1
  %33 = load i32, ptr %32, align 4, !tbaa !10
  %34 = add i32 %33, 1
  store i32 %34, ptr %32, align 4, !tbaa !10
  ret ptr %5
}

; Function Attrs: mustprogress nounwind uwtable
define linkonce_odr hidden void @_ZN3euf6egraph13update_recordC2EPNS_5enodeENS1_8lbl_hashE(ptr noundef nonnull align 8 dereferenceable(32) %0, ptr noundef %1) unnamed_addr #6 comdat align 2 {
  %3 = alloca ptr, align 8
  %4 = alloca ptr, align 8
  store ptr %0, ptr %3, align 8, !tbaa !168
  store ptr %1, ptr %4, align 8, !tbaa !15
  %5 = load ptr, ptr %3, align 8
  %6 = getelementptr inbounds nuw %"struct.euf::egraph::update_record", ptr %5, i32 0, i32 0
  store i32 8, ptr %6, align 8, !tbaa !172
  %7 = getelementptr inbounds nuw %"struct.euf::egraph::update_record", ptr %5, i32 0, i32 1
  %8 = load ptr, ptr %4, align 8, !tbaa !15
  store ptr %8, ptr %7, align 8, !tbaa !174
  %9 = getelementptr inbounds nuw %"struct.euf::egraph::update_record", ptr %5, i32 0, i32 2
  store ptr null, ptr %9, align 8, !tbaa !175
  %10 = getelementptr inbounds nuw %"struct.euf::egraph::update_record", ptr %5, i32 0, i32 3
  %11 = load ptr, ptr %4, align 8, !tbaa !15
  %12 = getelementptr inbounds nuw %"class.euf::enode", ptr %11, i32 0, i32 25
  %13 = load i8, ptr %12, align 4, !tbaa !347
  store i8 %13, ptr %10, align 8, !tbaa !140
  ret void
}

; Function Attrs: mustprogress uwtable
define hidden void @_ZN3euf6egraph12set_lbl_hashEPNS_5enodeE(ptr noundef nonnull align 8 dereferenceable(536) %0, ptr noundef %1) #4 align 2 {
  %3 = alloca ptr, align 8
  %4 = alloca ptr, align 8
  %5 = alloca %"struct.euf::egraph::update_record", align 8
  %6 = alloca i32, align 4
  %7 = alloca ptr, align 8
  %8 = alloca ptr, align 8
  %9 = alloca i32, align 4
  %10 = alloca %"struct.euf::egraph::update_record", align 8
  %11 = alloca i32, align 4
  store ptr %0, ptr %3, align 8, !tbaa !3
  store ptr %1, ptr %4, align 8, !tbaa !15
  %12 = load ptr, ptr %3, align 8
  %13 = getelementptr inbounds nuw %"class.euf::egraph", ptr %12, i32 0, i32 5
  call void @llvm.lifetime.start.p0(i64 32, ptr %5) #3
  %14 = load ptr, ptr %4, align 8, !tbaa !15
  call void @_ZN3euf6egraph13update_recordC2EPNS_5enodeENS1_8lbl_hashE(ptr noundef nonnull align 8 dereferenceable(32) %5, ptr noundef %14)
  %15 = call noundef nonnull align 8 dereferenceable(8) ptr @_ZN6vectorIN3euf6egraph13update_recordELb0EjE9push_backEOS2_(ptr noundef nonnull align 8 dereferenceable(8) %13, ptr noundef nonnull align 8 dereferenceable(32) %5)
  call void @llvm.lifetime.end.p0(i64 32, ptr %5) #3
  call void @llvm.lifetime.start.p0(i64 4, ptr %6) #3
  %16 = load ptr, ptr %4, align 8, !tbaa !15
  %17 = call noundef i32 @_ZNK3euf5enode11get_expr_idEv(ptr noundef nonnull align 8 dereferenceable(176) %16)
  %18 = call noundef i32 @_Z6hash_uj(i32 noundef %17)
  store i32 %18, ptr %6, align 4, !tbaa !10
  %19 = load i32, ptr %6, align 4, !tbaa !10
  %20 = and i32 %19, 63
  %21 = trunc i32 %20 to i8
  %22 = load ptr, ptr %4, align 8, !tbaa !15
  %23 = getelementptr inbounds nuw %"class.euf::enode", ptr %22, i32 0, i32 25
  store i8 %21, ptr %23, align 4, !tbaa !347
  call void @llvm.lifetime.start.p0(i64 8, ptr %7) #3
  %24 = load ptr, ptr %4, align 8, !tbaa !15
  %25 = call noundef ptr @_ZNK3euf5enode8get_rootEv(ptr noundef nonnull align 8 dereferenceable(176) %24)
  store ptr %25, ptr %7, align 8, !tbaa !15
  call void @llvm.lifetime.start.p0(i64 8, ptr %8) #3
  %26 = load ptr, ptr %7, align 8, !tbaa !15
  %27 = getelementptr inbounds nuw %"class.euf::enode", ptr %26, i32 0, i32 26
  store ptr %27, ptr %8, align 8, !tbaa !348
  %28 = load ptr, ptr %8, align 8, !tbaa !348
  call void @llvm.lifetime.start.p0(i64 4, ptr %9) #3
  %29 = load ptr, ptr %4, align 8, !tbaa !15
  %30 = getelementptr inbounds nuw %"class.euf::enode", ptr %29, i32 0, i32 25
  %31 = load i8, ptr %30, align 4, !tbaa !347
  %32 = sext i8 %31 to i32
  store i32 %32, ptr %9, align 4, !tbaa !10
  %33 = call noundef zeroext i1 @_ZNK14approx_set_tplIj3u2uyE11may_containERKj(ptr noundef nonnull align 8 dereferenceable(8) %28, ptr noundef nonnull align 4 dereferenceable(4) %9)
  %34 = xor i1 %33, true
  call void @llvm.lifetime.end.p0(i64 4, ptr %9) #3
  br i1 %34, label %35, label %44

35:                                               ; preds = %2
  %36 = getelementptr inbounds nuw %"class.euf::egraph", ptr %12, i32 0, i32 5
  call void @llvm.lifetime.start.p0(i64 32, ptr %10) #3
  %37 = load ptr, ptr %7, align 8, !tbaa !15
  call void @_ZN3euf6egraph13update_recordC2EPNS_5enodeENS1_7lbl_setE(ptr noundef nonnull align 8 dereferenceable(32) %10, ptr noundef %37)
  %38 = call noundef nonnull align 8 dereferenceable(8) ptr @_ZN6vectorIN3euf6egraph13update_recordELb0EjE9push_backEOS2_(ptr noundef nonnull align 8 dereferenceable(8) %36, ptr noundef nonnull align 8 dereferenceable(32) %10)
  call void @llvm.lifetime.end.p0(i64 32, ptr %10) #3
  %39 = load ptr, ptr %8, align 8, !tbaa !348
  call void @llvm.lifetime.start.p0(i64 4, ptr %11) #3
  %40 = load ptr, ptr %4, align 8, !tbaa !15
  %41 = getelementptr inbounds nuw %"class.euf::enode", ptr %40, i32 0, i32 25
  %42 = load i8, ptr %41, align 4, !tbaa !347
  %43 = sext i8 %42 to i32
  store i32 %43, ptr %11, align 4, !tbaa !10
  call void @_ZN14approx_set_tplIj3u2uyE6insertERKj(ptr noundef nonnull align 8 dereferenceable(8) %39, ptr noundef nonnull align 4 dereferenceable(4) %11)
  call void @llvm.lifetime.end.p0(i64 4, ptr %11) #3
  br label %44

44:                                               ; preds = %35, %2
  call void @llvm.lifetime.end.p0(i64 8, ptr %8) #3
  call void @llvm.lifetime.end.p0(i64 8, ptr %7) #3
  call void @llvm.lifetime.end.p0(i64 4, ptr %6) #3
  ret void
}