; Function Attrs: mustprogress uwtable
define hidden void @_ZN3euf6egraph12set_lbl_hashEPNS_5enodeE(ptr noundef nonnull align 8 dereferenceable(536) %0, ptr noundef %1) local_unnamed_addr #3 align 2 {
  %3 = getelementptr inbounds nuw i8, ptr %0, i64 112
  %4 = getelementptr inbounds nuw i8, ptr %1, i64 156
  %5 = load i8, ptr %4, align 4, !tbaa !29
  %6 = load ptr, ptr %3, align 8, !tbaa !121
  %7 = icmp eq ptr %6, null
  br i1 %7, label %14, label %8

8:                                                ; preds = %2
  %9 = getelementptr inbounds i8, ptr %6, i64 -4
  %10 = load i32, ptr %9, align 4, !tbaa !113
  %11 = getelementptr inbounds i8, ptr %6, i64 -8
  %12 = load i32, ptr %11, align 4, !tbaa !113
  %13 = icmp eq i32 %10, %12
  br i1 %13, label %14, label %_ZN6vectorIN3euf6egraph13update_recordELb0EjE9push_backEOS2_.exit

14:                                               ; preds = %8, %2
  tail call void @_ZN6vectorIN3euf6egraph13update_recordELb0EjE13expand_vectorEv(ptr noundef nonnull align 8 dereferenceable(8) %3)
  %.pre.i = load ptr, ptr %3, align 8, !tbaa !121
  %.phi.trans.insert.i = getelementptr inbounds i8, ptr %.pre.i, i64 -4
  %.pre2.i = load i32, ptr %.phi.trans.insert.i, align 4, !tbaa !113
  br label %_ZN6vectorIN3euf6egraph13update_recordELb0EjE9push_backEOS2_.exit

_ZN6vectorIN3euf6egraph13update_recordELb0EjE9push_backEOS2_.exit: ; preds = %8, %14
  %15 = phi i32 [ %.pre2.i, %14 ], [ %10, %8 ]
  %16 = phi ptr [ %.pre.i, %14 ], [ %6, %8 ]
  %17 = zext i32 %15 to i64
  %18 = getelementptr inbounds nuw %"struct.euf::egraph::update_record", ptr %16, i64 %17
  store i32 8, ptr %18, align 8, !tbaa !122
  %.sroa.419.0..sroa_idx = getelementptr inbounds nuw i8, ptr %18, i64 8
  store ptr %1, ptr %.sroa.419.0..sroa_idx, align 8, !tbaa !47
  %.sroa.520.0..sroa_idx = getelementptr inbounds nuw i8, ptr %18, i64 16
  store ptr null, ptr %.sroa.520.0..sroa_idx, align 8, !tbaa !47
  %.sroa.621.0..sroa_idx = getelementptr inbounds nuw i8, ptr %18, i64 24
  store i8 %5, ptr %.sroa.621.0..sroa_idx, align 8
  %19 = load ptr, ptr %3, align 8, !tbaa !121
  %20 = getelementptr inbounds i8, ptr %19, i64 -4
  %21 = load i32, ptr %20, align 4, !tbaa !113
  %22 = add i32 %21, 1
  store i32 %22, ptr %20, align 4, !tbaa !113
  %23 = load ptr, ptr %1, align 8, !tbaa !30
  %24 = load i32, ptr %23, align 4, !tbaa !117
  %25 = add i32 %24, 2127912214
  %26 = shl i32 %24, 12
  %27 = add i32 %25, %26
  %28 = lshr i32 %27, 19
  %29 = xor i32 %27, %28
  %30 = xor i32 %29, -949894596
  %31 = add i32 %30, 374761393
  %32 = shl i32 %30, 5
  %33 = add i32 %31, %32
  %34 = add i32 %33, -744332180
  %35 = shl i32 %33, 9
  %36 = xor i32 %34, %35
  %37 = add i32 %36, -42973499
  %38 = shl i32 %36, 3
  %39 = add i32 %37, %38
  %40 = lshr i32 %39, 16
  %41 = xor i32 %40, %39
  %42 = trunc i32 %41 to i8
  %43 = and i8 %42, 63
  %44 = xor i8 %43, 9
  store i8 %44, ptr %4, align 4, !tbaa !29
  %45 = getelementptr inbounds nuw i8, ptr %1, i64 64
  %46 = load ptr, ptr %45, align 8, !tbaa !32
  %47 = getelementptr inbounds nuw i8, ptr %46, i64 160
  %48 = load i64, ptr %47, align 8, !tbaa !254
  %49 = zext nneg i8 %44 to i64
  %50 = shl nuw i64 1, %49
  %51 = and i64 %50, %48
  %.not = icmp eq i64 %51, 0
  br i1 %.not, label %52, label %71

52:                                               ; preds = %_ZN6vectorIN3euf6egraph13update_recordELb0EjE9push_backEOS2_.exit
  %53 = getelementptr inbounds i8, ptr %19, i64 -8
  %54 = load i32, ptr %53, align 4, !tbaa !113
  %55 = icmp eq i32 %22, %54
  br i1 %55, label %56, label %_ZN6vectorIN3euf6egraph13update_recordELb0EjE9push_backEOS2_.exit14

56:                                               ; preds = %52
  tail call void @_ZN6vectorIN3euf6egraph13update_recordELb0EjE13expand_vectorEv(ptr noundef nonnull align 8 dereferenceable(8) %3)
  %.pre.i11 = load ptr, ptr %3, align 8, !tbaa !121
  %.phi.trans.insert.i12 = getelementptr inbounds i8, ptr %.pre.i11, i64 -4
  %.pre2.i13 = load i32, ptr %.phi.trans.insert.i12, align 4, !tbaa !113
  br label %_ZN6vectorIN3euf6egraph13update_recordELb0EjE9push_backEOS2_.exit14

_ZN6vectorIN3euf6egraph13update_recordELb0EjE9push_backEOS2_.exit14: ; preds = %52, %56
  %57 = phi i32 [ %.pre2.i13, %56 ], [ %22, %52 ]
  %58 = phi ptr [ %.pre.i11, %56 ], [ %19, %52 ]
  %59 = zext i32 %57 to i64
  %60 = getelementptr inbounds nuw %"struct.euf::egraph::update_record", ptr %58, i64 %59
  store i32 12, ptr %60, align 8, !tbaa !122
  %.sroa.415.0..sroa_idx = getelementptr inbounds nuw i8, ptr %60, i64 8
  store ptr %46, ptr %.sroa.415.0..sroa_idx, align 8, !tbaa !47
  %.sroa.5.0..sroa_idx = getelementptr inbounds nuw i8, ptr %60, i64 16
  store ptr null, ptr %.sroa.5.0..sroa_idx, align 8, !tbaa !47
  %.sroa.6.0..sroa_idx = getelementptr inbounds nuw i8, ptr %60, i64 24
  store i64 %48, ptr %.sroa.6.0..sroa_idx, align 8, !tbaa !28
  %61 = load ptr, ptr %3, align 8, !tbaa !121
  %62 = getelementptr inbounds i8, ptr %61, i64 -4
  %63 = load i32, ptr %62, align 4, !tbaa !113
  %64 = add i32 %63, 1
  store i32 %64, ptr %62, align 4, !tbaa !113
  %65 = load i8, ptr %4, align 4, !tbaa !29
  %66 = and i8 %65, 63
  %67 = zext nneg i8 %66 to i64
  %68 = shl nuw i64 1, %67
  %69 = load i64, ptr %47, align 8, !tbaa !254
  %70 = or i64 %68, %69
  store i64 %70, ptr %47, align 8, !tbaa !254
  br label %71

71:                                               ; preds = %_ZN6vectorIN3euf6egraph13update_recordELb0EjE9push_backEOS2_.exit14, %_ZN6vectorIN3euf6egraph13update_recordELb0EjE9push_backEOS2_.exit
  ret void
}